TN:
SF:/home/runner/work/MeshToolBox/MeshToolBox/App/Include/Application/ExtraDataContainer.h
FN:14,14,_ZN4Data9ExtraData18ExtraDataContainerC2Ev
FN:15,15,_ZN4Data9ExtraData18ExtraDataContainerD2Ev
FN:18,18,_ZN4Data9ExtraData18ExtraDataContainerC2ERKS1_
FN:22,22,_ZN4Data9ExtraData18ExtraDataContainerC2EOS1_
FN:35,42,_ZN4Data9ExtraData18ExtraDataContainer3GetIKNS0_23TriangleNormalExtraDataEEEPT_v
FN:35,42,_ZN4Data9ExtraData18ExtraDataContainer3GetINS0_26FlatVertexNormalsExtraDataEEEPT_v
FN:46,53,_ZNK4Data9ExtraData18ExtraDataContainer3GetINS0_23TriangleNormalExtraDataEEEPKT_v
FN:46,53,_ZNK4Data9ExtraData18ExtraDataContainer3GetINS0_26VerticesTexCoordsExtraDataEEEPKT_v
FN:57,67,_ZN4Data9ExtraData18ExtraDataContainer11GetOrCreateINS0_23TriangleNormalExtraDataEEERT_v
FN:57,67,_ZN4Data9ExtraData18ExtraDataContainer11GetOrCreateINS0_25IsBoundaryVertexExtraDataEEERT_v
FN:57,67,_ZN4Data9ExtraData18ExtraDataContainer11GetOrCreateINS0_26FlatVertexNormalsExtraDataEEERT_v
FN:57,67,_ZN4Data9ExtraData18ExtraDataContainer11GetOrCreateINS0_26VerticesTexCoordsExtraDataEEERT_v
FN:57,67,_ZN4Data9ExtraData18ExtraDataContainer11GetOrCreateINS0_27SmoothVertexNormalExtraDataEEERT_v
FN:71,76,_ZN4Data9ExtraData18ExtraDataContainer5EraseINS0_26FlatVertexNormalsExtraDataEEEvv
FN:80,83,_ZNK4Data9ExtraData18ExtraDataContainer3HasINS0_23TriangleNormalExtraDataEEEbv
FN:80,83,_ZNK4Data9ExtraData18ExtraDataContainer3HasINS0_26FlatVertexNormalsExtraDataEEEbv
FN:80,83,_ZNK4Data9ExtraData18ExtraDataContainer3HasINS0_26VerticesTexCoordsExtraDataEEEbv
FNDA:106,_ZN4Data9ExtraData18ExtraDataContainerC2Ev
FNDA:0,_ZN4Data9ExtraData18ExtraDataContainerD2Ev
FNDA:0,_ZN4Data9ExtraData18ExtraDataContainerC2ERKS1_
FNDA:62,_ZN4Data9ExtraData18ExtraDataContainerC2EOS1_
FNDA:0,_ZN4Data9ExtraData18ExtraDataContainer3GetIKNS0_23TriangleNormalExtraDataEEEPT_v
FNDA:8,_ZN4Data9ExtraData18ExtraDataContainer3GetINS0_26FlatVertexNormalsExtraDataEEEPT_v
FNDA:8,_ZNK4Data9ExtraData18ExtraDataContainer3GetINS0_23TriangleNormalExtraDataEEEPKT_v
FNDA:8,_ZNK4Data9ExtraData18ExtraDataContainer3GetINS0_26VerticesTexCoordsExtraDataEEEPKT_v
FNDA:0,_ZN4Data9ExtraData18ExtraDataContainer11GetOrCreateINS0_23TriangleNormalExtraDataEEERT_v
FNDA:25,_ZN4Data9ExtraData18ExtraDataContainer11GetOrCreateINS0_25IsBoundaryVertexExtraDataEEERT_v
FNDA:36,_ZN4Data9ExtraData18ExtraDataContainer11GetOrCreateINS0_26FlatVertexNormalsExtraDataEEERT_v
FNDA:0,_ZN4Data9ExtraData18ExtraDataContainer11GetOrCreateINS0_26VerticesTexCoordsExtraDataEEERT_v
FNDA:8,_ZN4Data9ExtraData18ExtraDataContainer11GetOrCreateINS0_27SmoothVertexNormalExtraDataEEERT_v
FNDA:8,_ZN4Data9ExtraData18ExtraDataContainer5EraseINS0_26FlatVertexNormalsExtraDataEEEvv
FNDA:0,_ZNK4Data9ExtraData18ExtraDataContainer3HasINS0_23TriangleNormalExtraDataEEEbv
FNDA:8,_ZNK4Data9ExtraData18ExtraDataContainer3HasINS0_26FlatVertexNormalsExtraDataEEEbv
FNDA:0,_ZNK4Data9ExtraData18ExtraDataContainer3HasINS0_26VerticesTexCoordsExtraDataEEEbv
FNF:17
FNH:10
DA:14,106
DA:15,0
DA:18,0
DA:22,62
DA:35,8
DA:37,8
DA:38,8
DA:39,0
DA:41,8
DA:46,16
DA:48,16
DA:49,16
DA:50,0
DA:52,16
DA:57,69
DA:59,69
DA:60,69
DA:62,25
DA:63,25
DA:66,138
DA:71,8
DA:73,8
DA:74,8
DA:75,8
DA:76,8
DA:80,8
DA:82,8
LF:27
LH:23
end_of_record
TN:
SF:/home/runner/work/MeshToolBox/MeshToolBox/App/Include/Application/ExtraDataType.h
FN:15,15,_ZN4Data9ExtraData17BaseExtraDataTypeD0Ev
FN:15,15,_ZN4Data9ExtraData17BaseExtraDataTypeD2Ev
FN:27,27,_ZN4Data9ExtraData19SingleDataExtraDataIN3glm3vecILi3EfLNS2_9qualifierE0EEEEC2Ev
FN:27,27,_ZN4Data9ExtraData19SingleDataExtraDataISt5arrayIN3glm3vecILi2EfLNS3_9qualifierE0EEELm3EEEC2Ev
FN:27,27,_ZN4Data9ExtraData19SingleDataExtraDataISt6vectorIN3glm3vecILi3EfLNS3_9qualifierE0EEESaIS6_EEEC2Ev
FN:27,27,_ZN4Data9ExtraData19SingleDataExtraDataIbEC2Ev
FN:28,28,_ZN4Data9ExtraData19SingleDataExtraDataIN3glm3vecILi3EfLNS2_9qualifierE0EEEED0Ev
FN:28,28,_ZN4Data9ExtraData19SingleDataExtraDataIN3glm3vecILi3EfLNS2_9qualifierE0EEEED2Ev
FN:28,28,_ZN4Data9ExtraData19SingleDataExtraDataISt5arrayIN3glm3vecILi2EfLNS3_9qualifierE0EEELm3EEED0Ev
FN:28,28,_ZN4Data9ExtraData19SingleDataExtraDataISt5arrayIN3glm3vecILi2EfLNS3_9qualifierE0EEELm3EEED2Ev
FN:28,28,_ZN4Data9ExtraData19SingleDataExtraDataISt6vectorIN3glm3vecILi3EfLNS3_9qualifierE0EEESaIS6_EEED0Ev
FN:28,28,_ZN4Data9ExtraData19SingleDataExtraDataISt6vectorIN3glm3vecILi3EfLNS3_9qualifierE0EEESaIS6_EEED2Ev
FN:28,28,_ZN4Data9ExtraData19SingleDataExtraDataIbED0Ev
FN:28,28,_ZN4Data9ExtraData19SingleDataExtraDataIbED2Ev
FN:31,31,_ZNK4Data9ExtraData19SingleDataExtraDataIN3glm3vecILi3EfLNS2_9qualifierE0EEEE7GetDataEv
FN:31,31,_ZNK4Data9ExtraData19SingleDataExtraDataISt5arrayIN3glm3vecILi2EfLNS3_9qualifierE0EEELm3EEE7GetDataEv
FN:31,31,_ZNK4Data9ExtraData19SingleDataExtraDataISt6vectorIN3glm3vecILi3EfLNS3_9qualifierE0EEESaIS6_EEE7GetDataEv
FN:34,34,_ZN4Data9ExtraData19SingleDataExtraDataISt5arrayIN3glm3vecILi2EfLNS3_9qualifierE0EEELm3EEE7GetDataEv
FN:34,34,_ZN4Data9ExtraData19SingleDataExtraDataISt6vectorIN3glm3vecILi3EfLNS3_9qualifierE0EEESaIS6_EEE7GetDataEv
FN:37,37,_ZN4Data9ExtraData19SingleDataExtraDataIN3glm3vecILi3EfLNS2_9qualifierE0EEEE7SetDataERKS5_
FN:40,40,_ZN4Data9ExtraData19SingleDataExtraDataIbE7SetDataEOb
FN:51,51,_ZN4Data9ExtraData23TriangleNormalExtraData7GetNameB5cxx11Ev
FN:59,59,_ZN4Data9ExtraData27SmoothVertexNormalExtraData7GetNameB5cxx11Ev
FN:67,67,_ZN4Data9ExtraData26FlatVertexNormalsExtraData7GetNameB5cxx11Ev
FN:75,75,_ZN4Data9ExtraData26VerticesTexCoordsExtraData7GetNameB5cxx11Ev
FN:77,80,_ZNK4Data9ExtraData26VerticesTexCoordsExtraData18GetVertexTexCoordsEh
FN:84,87,_ZN4Data9ExtraData26VerticesTexCoordsExtraData18SetVertexTexCoordsERKN3glm3vecILi2EfLNS2_9qualifierE0EEEh
FN:95,95,_ZN4Data9ExtraData25IsBoundaryVertexExtraData7GetNameB5cxx11Ev
FNDA:0,_ZN4Data9ExtraData17BaseExtraDataTypeD0Ev
FNDA:0,_ZN4Data9ExtraData17BaseExtraDataTypeD2Ev
FNDA:0,_ZN4Data9ExtraData19SingleDataExtraDataIN3glm3vecILi3EfLNS2_9qualifierE0EEEEC2Ev
FNDA:0,_ZN4Data9ExtraData19SingleDataExtraDataISt5arrayIN3glm3vecILi2EfLNS3_9qualifierE0EEELm3EEEC2Ev
FNDA:8,_ZN4Data9ExtraData19SingleDataExtraDataISt6vectorIN3glm3vecILi3EfLNS3_9qualifierE0EEESaIS6_EEEC2Ev
FNDA:9,_ZN4Data9ExtraData19SingleDataExtraDataIbEC2Ev
FNDA:0,_ZN4Data9ExtraData19SingleDataExtraDataIN3glm3vecILi3EfLNS2_9qualifierE0EEEED0Ev
FNDA:0,_ZN4Data9ExtraData19SingleDataExtraDataIN3glm3vecILi3EfLNS2_9qualifierE0EEEED2Ev
FNDA:0,_ZN4Data9ExtraData19SingleDataExtraDataISt5arrayIN3glm3vecILi2EfLNS3_9qualifierE0EEELm3EEED0Ev
FNDA:0,_ZN4Data9ExtraData19SingleDataExtraDataISt5arrayIN3glm3vecILi2EfLNS3_9qualifierE0EEELm3EEED2Ev
FNDA:0,_ZN4Data9ExtraData19SingleDataExtraDataISt6vectorIN3glm3vecILi3EfLNS3_9qualifierE0EEESaIS6_EEED0Ev
FNDA:16,_ZN4Data9ExtraData19SingleDataExtraDataISt6vectorIN3glm3vecILi3EfLNS3_9qualifierE0EEESaIS6_EEED2Ev
FNDA:0,_ZN4Data9ExtraData19SingleDataExtraDataIbED0Ev
FNDA:0,_ZN4Data9ExtraData19SingleDataExtraDataIbED2Ev
FNDA:0,_ZNK4Data9ExtraData19SingleDataExtraDataIN3glm3vecILi3EfLNS2_9qualifierE0EEEE7GetDataEv
FNDA:0,_ZNK4Data9ExtraData19SingleDataExtraDataISt5arrayIN3glm3vecILi2EfLNS3_9qualifierE0EEELm3EEE7GetDataEv
FNDA:16,_ZNK4Data9ExtraData19SingleDataExtraDataISt6vectorIN3glm3vecILi3EfLNS3_9qualifierE0EEESaIS6_EEE7GetDataEv
FNDA:0,_ZN4Data9ExtraData19SingleDataExtraDataISt5arrayIN3glm3vecILi2EfLNS3_9qualifierE0EEELm3EEE7GetDataEv
FNDA:36,_ZN4Data9ExtraData19SingleDataExtraDataISt6vectorIN3glm3vecILi3EfLNS3_9qualifierE0EEESaIS6_EEE7GetDataEv
FNDA:128,_ZN4Data9ExtraData19SingleDataExtraDataIN3glm3vecILi3EfLNS2_9qualifierE0EEEE7SetDataERKS5_
FNDA:25,_ZN4Data9ExtraData19SingleDataExtraDataIbE7SetDataEOb
FNDA:0,_ZN4Data9ExtraData23TriangleNormalExtraData7GetNameB5cxx11Ev
FNDA:0,_ZN4Data9ExtraData27SmoothVertexNormalExtraData7GetNameB5cxx11Ev
FNDA:0,_ZN4Data9ExtraData26FlatVertexNormalsExtraData7GetNameB5cxx11Ev
FNDA:0,_ZN4Data9ExtraData26VerticesTexCoordsExtraData7GetNameB5cxx11Ev
FNDA:0,_ZNK4Data9ExtraData26VerticesTexCoordsExtraData18GetVertexTexCoordsEh
FNDA:0,_ZN4Data9ExtraData26VerticesTexCoordsExtraData18SetVertexTexCoordsERKN3glm3vecILi2EfLNS2_9qualifierE0EEEh
FNDA:0,_ZN4Data9ExtraData25IsBoundaryVertexExtraData7GetNameB5cxx11Ev
FNF:28
FNH:7
DA:15,0
DA:27,17
DA:28,16
DA:31,16
DA:34,36
DA:37,128
DA:40,25
DA:51,0
DA:59,0
DA:67,0
DA:75,0
DA:77,0
DA:79,0
DA:84,0
DA:86,0
DA:87,0
DA:95,0
LF:17
LH:6
end_of_record
TN:
SF:/home/runner/work/MeshToolBox/MeshToolBox/App/Include/Application/Mesh.h
FN:39,39,_ZN4Data7Surface4MeshC2Ev
FN:42,42,_ZN4Data7Surface4MeshD2Ev
FNDA:7,_ZN4Data7Surface4MeshC2Ev
FNDA:0,_ZN4Data7Surface4MeshD2Ev
FNF:2
FNH:1
DA:39,7
DA:42,0
LF:2
LH:1
end_of_record
TN:
SF:/home/runner/work/MeshToolBox/MeshToolBox/App/Include/Application/PrimitiveProxy.h
FN:108,112,_ZNK4Data9Primitive11VertexProxy12GetExtraDataINS_9ExtraData26FlatVertexNormalsExtraDataEEEPKT_v
FN:116,120,_ZNK4Data9Primitive11VertexProxy20GetOrCreateExtraDataINS_9ExtraData25IsBoundaryVertexExtraDataEEERT_v
FN:116,120,_ZNK4Data9Primitive11VertexProxy20GetOrCreateExtraDataINS_9ExtraData26FlatVertexNormalsExtraDataEEERT_v
FN:116,120,_ZNK4Data9Primitive11VertexProxy20GetOrCreateExtraDataINS_9ExtraData27SmoothVertexNormalExtraDataEEERT_v
FN:132,135,_ZNK4Data9Primitive11VertexProxy12HasExtraDataINS_9ExtraData26FlatVertexNormalsExtraDataEEEbv
FN:139,143,_ZNK4Data9Primitive11VertexProxy14EraseExtraDataINS_9ExtraData26FlatVertexNormalsExtraDataEEEvv
FN:25,30,_ZNK4Data9Primitive13TriangleProxy12GetExtraDataINS_9ExtraData23TriangleNormalExtraDataEEEPKT_v
FN:34,38,_ZNK4Data9Primitive13TriangleProxy20GetOrCreateExtraDataINS_9ExtraData23TriangleNormalExtraDataEEERT_v
FN:58,61,_ZNK4Data9Primitive13TriangleProxy12HasExtraDataINS_9ExtraData23TriangleNormalExtraDataEEEbv
FNDA:8,_ZNK4Data9Primitive11VertexProxy12GetExtraDataINS_9ExtraData26FlatVertexNormalsExtraDataEEEPKT_v
FNDA:25,_ZNK4Data9Primitive11VertexProxy20GetOrCreateExtraDataINS_9ExtraData25IsBoundaryVertexExtraDataEEERT_v
FNDA:36,_ZNK4Data9Primitive11VertexProxy20GetOrCreateExtraDataINS_9ExtraData26FlatVertexNormalsExtraDataEEERT_v
FNDA:8,_ZNK4Data9Primitive11VertexProxy20GetOrCreateExtraDataINS_9ExtraData27SmoothVertexNormalExtraDataEEERT_v
FNDA:8,_ZNK4Data9Primitive11VertexProxy12HasExtraDataINS_9ExtraData26FlatVertexNormalsExtraDataEEEbv
FNDA:8,_ZNK4Data9Primitive11VertexProxy14EraseExtraDataINS_9ExtraData26FlatVertexNormalsExtraDataEEEvv
FNDA:0,_ZNK4Data9Primitive13TriangleProxy12GetExtraDataINS_9ExtraData23TriangleNormalExtraDataEEEPKT_v
FNDA:0,_ZNK4Data9Primitive13TriangleProxy20GetOrCreateExtraDataINS_9ExtraData23TriangleNormalExtraDataEEERT_v
FNDA:0,_ZNK4Data9Primitive13TriangleProxy12HasExtraDataINS_9ExtraData23TriangleNormalExtraDataEEEbv
FNF:9
FNH:6
DA:25,0
DA:27,0
DA:28,0
DA:29,0
DA:34,0
DA:36,0
DA:37,0
DA:58,0
DA:60,0
DA:108,8
DA:110,8
DA:111,8
DA:116,69
DA:118,69
DA:119,69
DA:132,8
DA:134,8
DA:139,8
DA:141,8
DA:142,8
LF:20
LH:11
end_of_record
TN:
SF:/home/runner/work/MeshToolBox/MeshToolBox/App/Include/Application/VertexPair.h
FN:44,49,_ZNKSt4hashIN4Data9Primitive10VertexPairEEclERKS2_
FNDA:0,_ZNKSt4hashIN4Data9Primitive10VertexPairEEclERKS2_
FNF:1
FNH:0
DA:44,0
DA:46,0
DA:47,0
DA:48,0
LF:4
LH:0
end_of_record
TN:
SF:/home/runner/work/MeshToolBox/MeshToolBox/App/Source/Mesh.cpp
FN:102,107,_ZN4Data7Surface4Mesh30AddTrianglesExtraDataContainerEv
FN:109,155,_ZN4Data7Surface4Mesh22UpdateMeshConnectivityEv
FN:130,142,_ZZN4Data7Surface4Mesh22UpdateMeshConnectivityEvENKUljjhE_clEjjh
FN:157,160,_ZN4Data7Surface4Mesh11GetVerticesEv
FN:162,165,_ZNK4Data7Surface4Mesh11GetVerticesEv
FN:167,170,_ZN4Data7Surface4Mesh12GetTrianglesEv
FN:172,175,_ZNK4Data7Surface4Mesh12GetTrianglesEv
FN:177,180,_ZNK4Data7Surface4Mesh29HasVerticesExtraDataContainerEv
FN:18,23,_ZN4Data7Surface4MeshC2ERKS1_
FN:182,185,_ZNK4Data7Surface4Mesh30HasTrianglesExtraDataContainerEv
FN:187,212,_ZN4Data7Surface4Mesh22ComputeTriangleNormalsEb
FN:214,300,_ZN4Data7Surface4Mesh26ComputeSmoothVertexNormalsEb
FN:26,29,_ZNK4Data7Surface4Mesh5CloneEv
FN:302,333,_ZN4Data7Surface4Mesh28UpdateVerticesBoundaryStatusEv
FN:31,34,_ZNK4Data7Surface4Mesh14GetVertexCountEv
FN:36,39,_ZNK4Data7Surface4Mesh16GetTriangleCountEv
FN:41,45,_ZN4Data7Surface4Mesh9GetVertexEj
FN:47,51,_ZN4Data7Surface4Mesh11GetTriangleEj
FN:53,57,_ZNK4Data7Surface4Mesh13GetVertexDataEj
FN:59,63,_ZN4Data7Surface4Mesh13GetVertexDataEj
FN:65,69,_ZNK4Data7Surface4Mesh15GetTriangleDataEj
FN:71,75,_ZN4Data7Surface4Mesh15GetTriangleDataEj
FN:77,84,_ZN4Data7Surface4Mesh9AddVertexERKNS_9Primitive6VertexE
FN:86,93,_ZN4Data7Surface4Mesh11AddTriangleERKNS_9Primitive8TriangleE
FN:95,100,_ZN4Data7Surface4Mesh29AddVerticesExtraDataContainerEv
FNDA:6,_ZN4Data7Surface4Mesh30AddTrianglesExtraDataContainerEv
FNDA:6,_ZN4Data7Surface4Mesh22UpdateMeshConnectivityEv
FNDA:126,_ZZN4Data7Surface4Mesh22UpdateMeshConnectivityEvENKUljjhE_clEjjh
FNDA:2,_ZN4Data7Surface4Mesh11GetVerticesEv
FNDA:0,_ZNK4Data7Surface4Mesh11GetVerticesEv
FNDA:2,_ZN4Data7Surface4Mesh12GetTrianglesEv
FNDA:0,_ZNK4Data7Surface4Mesh12GetTrianglesEv
FNDA:121,_ZNK4Data7Surface4Mesh29HasVerticesExtraDataContainerEv
FNDA:2,_ZN4Data7Surface4MeshC2ERKS1_
FNDA:100,_ZNK4Data7Surface4Mesh30HasTrianglesExtraDataContainerEv
FNDA:1,_ZN4Data7Surface4Mesh22ComputeTriangleNormalsEb
FNDA:1,_ZN4Data7Surface4Mesh26ComputeSmoothVertexNormalsEb
FNDA:1,_ZNK4Data7Surface4Mesh5CloneEv
FNDA:1,_ZN4Data7Surface4Mesh28UpdateVerticesBoundaryStatusEv
FNDA:264,_ZNK4Data7Surface4Mesh14GetVertexCountEv
FNDA:443,_ZNK4Data7Surface4Mesh16GetTriangleCountEv
FNDA:90,_ZN4Data7Surface4Mesh9GetVertexEj
FNDA:85,_ZN4Data7Surface4Mesh11GetTriangleEj
FNDA:15,_ZNK4Data7Surface4Mesh13GetVertexDataEj
FNDA:34,_ZN4Data7Surface4Mesh13GetVertexDataEj
FNDA:54,_ZNK4Data7Surface4Mesh15GetTriangleDataEj
FNDA:46,_ZN4Data7Surface4Mesh15GetTriangleDataEj
FNDA:161,_ZN4Data7Surface4Mesh9AddVertexERKNS_9Primitive6VertexE
FNDA:103,_ZN4Data7Surface4Mesh11AddTriangleERKNS_9Primitive8TriangleE
FNDA:4,_ZN4Data7Surface4Mesh29AddVerticesExtraDataContainerEv
FNF:25
FNH:23
DA:18,2
DA:19,2
DA:20,2
DA:21,2
DA:22,2
DA:23,2
DA:26,1
DA:28,1
DA:31,264
DA:33,264
DA:36,443
DA:38,443
DA:41,90
DA:43,90
DA:44,90
DA:47,85
DA:49,85
DA:50,85
DA:53,15
DA:55,15
DA:56,15
DA:59,34
DA:61,34
DA:62,34
DA:65,54
DA:67,54
DA:68,54
DA:71,46
DA:73,46
DA:74,46
DA:77,161
DA:79,161
DA:80,161
DA:81,0
DA:82,161
DA:83,161
DA:86,103
DA:88,103
DA:89,103
DA:90,1
DA:91,103
DA:92,103
DA:95,4
DA:97,4
DA:98,0
DA:99,4
DA:100,4
DA:102,6
DA:104,6
DA:105,0
DA:106,6
DA:107,6
DA:109,6
DA:111,6
DA:113,48
DA:115,42
DA:118,168
DA:120,126
DA:121,126
DA:123,126
DA:125,126
DA:126,49
DA:130,126
DA:132,126
DA:134,85
DA:138,41
DA:139,41
DA:140,41
DA:142,126
DA:144,42
DA:145,42
DA:146,42
DA:149,42
DA:151,42
DA:153,42
DA:155,6
DA:157,2
DA:159,2
DA:162,0
DA:164,0
DA:167,2
DA:169,2
DA:172,0
DA:174,0
DA:177,121
DA:179,121
DA:182,100
DA:184,100
DA:187,1
DA:190,1
DA:191,1
DA:193,13
DA:195,12
DA:198,12
DA:199,12
DA:200,12
DA:202,12
DA:203,12
DA:206,12
DA:207,12
DA:208,12
DA:209,12
DA:210,12
DA:212,1
DA:214,1
DA:217,1
DA:218,1
DA:221,1
DA:222,1
DA:224,13
DA:226,12
DA:229,12
DA:230,12
DA:231,12
DA:233,12
DA:234,12
DA:238,12
DA:240,0
DA:244,12
DA:247,12
DA:250,12
DA:251,12
DA:253,12
DA:254,12
DA:257,12
DA:258,12
DA:259,12
DA:262,12
DA:263,12
DA:264,12
DA:267,12
DA:268,12
DA:269,12
DA:270,12
DA:271,12
DA:272,12
DA:276,9
DA:279,8
DA:280,8
DA:283,8
DA:284,8
DA:287,24
DA:288,8
DA:289,8
DA:293,8
DA:294,8
DA:295,8
DA:298,8
DA:300,1
DA:302,1
DA:305,1
DA:306,1
DA:308,10
DA:310,9
DA:311,9
DA:312,9
DA:315,9
DA:317,32
DA:321,24
DA:323,8
DA:324,8
DA:325,8
DA:327,8
DA:328,8
DA:329,8
DA:333,1
LF:166
LH:158
end_of_record
TN:
SF:/home/runner/work/MeshToolBox/MeshToolBox/App/Source/MeshCirculator.cpp
FN:10,30,_ZN4Data7Surface4Mesh30VerticesAroundVertexCirculatorC2ERKS1_j
FN:103,106,_ZN4Data7Surface4Mesh30VerticesAroundVertexCirculator11SetIsActiveEb
FN:108,117,_ZN4Data7Surface4Mesh30VerticesAroundVertexCirculator29UpdateCurVertexIndexInCWOrderEv
FN:119,128,_ZN4Data7Surface4Mesh30VerticesAroundVertexCirculator30UpdateCurVertexIndexInCCWOrderEv
FN:131,134,_ZN4Data7Surface4Mesh25VerticesAroundVertexRangeC2ERKS1_j
FN:136,141,_ZNK4Data7Surface4Mesh25VerticesAroundVertexRange5beginEv
FN:143,148,_ZNK4Data7Surface4Mesh25VerticesAroundVertexRange3endEv
FN:150,153,_ZNK4Data7Surface4Mesh23GetVerticesAroundVertexEj
FN:156,168,_ZN4Data7Surface4Mesh31TrianglesAroundVertexCirculatorC2ERKS1_j
FN:170,177,_ZNK4Data7Surface4Mesh31TrianglesAroundVertexCirculatoreqERKS2_
FN:179,182,_ZNK4Data7Surface4Mesh31TrianglesAroundVertexCirculatorneERKS2_
FN:184,231,_ZN4Data7Surface4Mesh31TrianglesAroundVertexCirculatorppEv
FN:233,236,_ZNK4Data7Surface4Mesh31TrianglesAroundVertexCirculatordeEv
FN:238,241,_ZN4Data7Surface4Mesh31TrianglesAroundVertexCirculator11SetIsActiveEb
FN:244,247,_ZN4Data7Surface4Mesh26TrianglesAroundVertexRangeC2ERKS1_j
FN:249,254,_ZNK4Data7Surface4Mesh26TrianglesAroundVertexRange5beginEv
FN:256,261,_ZNK4Data7Surface4Mesh26TrianglesAroundVertexRange3endEv
FN:263,266,_ZNK4Data7Surface4Mesh24GetTrianglesAroundVertexEj
FN:32,39,_ZNK4Data7Surface4Mesh30VerticesAroundVertexCirculatoreqERKS2_
FN:41,44,_ZNK4Data7Surface4Mesh30VerticesAroundVertexCirculatorneERKS2_
FN:46,96,_ZN4Data7Surface4Mesh30VerticesAroundVertexCirculatorppEv
FN:98,101,_ZNK4Data7Surface4Mesh30VerticesAroundVertexCirculatordeEv
FNDA:8,_ZN4Data7Surface4Mesh30VerticesAroundVertexCirculatorC2ERKS1_j
FNDA:8,_ZN4Data7Surface4Mesh30VerticesAroundVertexCirculator11SetIsActiveEb
FNDA:5,_ZN4Data7Surface4Mesh30VerticesAroundVertexCirculator29UpdateCurVertexIndexInCWOrderEv
FNDA:8,_ZN4Data7Surface4Mesh30VerticesAroundVertexCirculator30UpdateCurVertexIndexInCCWOrderEv
FNDA:4,_ZN4Data7Surface4Mesh25VerticesAroundVertexRangeC2ERKS1_j
FNDA:4,_ZNK4Data7Surface4Mesh25VerticesAroundVertexRange5beginEv
FNDA:4,_ZNK4Data7Surface4Mesh25VerticesAroundVertexRange3endEv
FNDA:4,_ZNK4Data7Surface4Mesh23GetVerticesAroundVertexEj
FNDA:6,_ZN4Data7Surface4Mesh31TrianglesAroundVertexCirculatorC2ERKS1_j
FNDA:13,_ZNK4Data7Surface4Mesh31TrianglesAroundVertexCirculatoreqERKS2_
FNDA:13,_ZNK4Data7Surface4Mesh31TrianglesAroundVertexCirculatorneERKS2_
FNDA:10,_ZN4Data7Surface4Mesh31TrianglesAroundVertexCirculatorppEv
FNDA:10,_ZNK4Data7Surface4Mesh31TrianglesAroundVertexCirculatordeEv
FNDA:6,_ZN4Data7Surface4Mesh31TrianglesAroundVertexCirculator11SetIsActiveEb
FNDA:3,_ZN4Data7Surface4Mesh26TrianglesAroundVertexRangeC2ERKS1_j
FNDA:3,_ZNK4Data7Surface4Mesh26TrianglesAroundVertexRange5beginEv
FNDA:3,_ZNK4Data7Surface4Mesh26TrianglesAroundVertexRange3endEv
FNDA:3,_ZNK4Data7Surface4Mesh24GetTrianglesAroundVertexEj
FNDA:20,_ZNK4Data7Surface4Mesh30VerticesAroundVertexCirculatoreqERKS2_
FNDA:20,_ZNK4Data7Surface4Mesh30VerticesAroundVertexCirculatorneERKS2_
FNDA:16,_ZN4Data7Surface4Mesh30VerticesAroundVertexCirculatorppEv
FNDA:16,_ZNK4Data7Surface4Mesh30VerticesAroundVertexCirculatordeEv
FNF:22
FNH:22
DA:10,8
DA:11,8
DA:12,8
DA:15,8
DA:16,8
DA:19,8
DA:22,8
DA:24,8
DA:25,8
DA:28,8
DA:29,8
DA:30,8
DA:32,20
DA:35,20
DA:37,20
DA:38,20
DA:41,20
DA:43,20
DA:46,16
DA:48,16
DA:50,16
DA:54,11
DA:55,11
DA:57,11
DA:59,5
DA:61,2
DA:62,2
DA:63,2
DA:64,2
DA:65,2
DA:66,2
DA:70,3
DA:71,3
DA:76,8
DA:77,8
DA:78,8
DA:80,8
DA:85,5
DA:86,5
DA:87,5
DA:89,5
DA:90,3
DA:92,2
DA:95,13
DA:98,16
DA:100,16
DA:103,8
DA:105,8
DA:106,8
DA:108,5
DA:110,5
DA:111,5
DA:112,5
DA:115,5
DA:116,5
DA:117,5
DA:119,8
DA:121,8
DA:122,8
DA:123,8
DA:126,8
DA:127,8
DA:128,8
DA:131,4
DA:132,4
DA:133,4
DA:134,4
DA:136,4
DA:138,4
DA:139,4
DA:140,4
DA:143,4
DA:145,4
DA:146,4
DA:147,4
DA:150,4
DA:152,4
DA:156,6
DA:157,6
DA:158,6
DA:161,6
DA:162,6
DA:165,6
DA:166,6
DA:167,6
DA:168,6
DA:170,13
DA:173,13
DA:175,13
DA:176,13
DA:179,13
DA:181,13
DA:184,10
DA:186,10
DA:190,10
DA:191,10
DA:192,10
DA:193,10
DA:196,10
DA:198,8
DA:200,4
DA:202,2
DA:203,2
DA:204,2
DA:205,2
DA:206,2
DA:207,2
DA:211,2
DA:216,6
DA:217,6
DA:218,6
DA:223,2
DA:224,2
DA:225,2
DA:226,2
DA:227,2
DA:230,10
DA:233,10
DA:235,10
DA:238,6
DA:240,6
DA:241,6
DA:244,3
DA:245,3
DA:246,3
DA:247,3
DA:249,3
DA:251,3
DA:252,3
DA:253,3
DA:256,3
DA:258,3
DA:259,3
DA:260,3
DA:263,3
DA:265,3
LF:136
LH:136
end_of_record
TN:
SF:/home/runner/work/MeshToolBox/MeshToolBox/App/Source/MeshExporter.cpp
FN:130,133,_ZZN9Utilitary7Surface12MeshExporter9ExportOBJERKN4Data7Surface4MeshERKNSt10filesystem7__cxx114pathEENKUlRKN3glm3vecILi2EfLNSC_9qualifierE0EEEE_clESH_
FN:148,151,_ZZN9Utilitary7Surface12MeshExporter9ExportOBJERKN4Data7Surface4MeshERKNSt10filesystem7__cxx114pathEENKUlRKN3glm3vecILi3EfLNSC_9qualifierE0EEEE_clESH_
FN:23,45,_ZN9Utilitary7Surface12MeshExporter9ExportOFFERKN4Data7Surface4MeshERKNSt10filesystem7__cxx114pathE
FN:47,162,_ZN9Utilitary7Surface12MeshExporter9ExportOBJERKN4Data7Surface4MeshERKNSt10filesystem7__cxx114pathE
FNDA:17,_ZZN9Utilitary7Surface12MeshExporter9ExportOBJERKN4Data7Surface4MeshERKNSt10filesystem7__cxx114pathEENKUlRKN3glm3vecILi2EfLNSC_9qualifierE0EEEE_clESH_
FNDA:6,_ZZN9Utilitary7Surface12MeshExporter9ExportOBJERKN4Data7Surface4MeshERKNSt10filesystem7__cxx114pathEENKUlRKN3glm3vecILi3EfLNSC_9qualifierE0EEEE_clESH_
FNDA:1,_ZN9Utilitary7Surface12MeshExporter9ExportOFFERKN4Data7Surface4MeshERKNSt10filesystem7__cxx114pathE
FNDA:2,_ZN9Utilitary7Surface12MeshExporter9ExportOBJERKN4Data7Surface4MeshERKNSt10filesystem7__cxx114pathE
FNF:4
FNH:4
DA:23,1
DA:25,1
DA:27,1
DA:30,1
DA:33,1
DA:36,5
DA:37,4
DA:40,3
DA:41,4
DA:42,2
DA:44,1
DA:45,1
DA:47,2
DA:50,2
DA:52,2
DA:55,10
DA:56,8
DA:60,2
DA:61,2
DA:63,1
DA:64,3
DA:66,2
DA:67,2
DA:68,8
DA:70,6
DA:74,1
DA:75,5
DA:77,4
DA:79,1
DA:81,2
DA:84,2
DA:85,2
DA:87,1
DA:88,3
DA:90,2
DA:91,2
DA:92,2
DA:93,2
DA:96,1
DA:97,2
DA:99,1
DA:100,1
DA:102,1
DA:104,2
DA:106,6
DA:108,4
DA:109,4
DA:110,4
DA:111,16
DA:114,12
DA:117,12
DA:119,6
DA:120,6
DA:122,6
DA:123,6
DA:124,6
DA:125,6
DA:126,6
DA:127,6
DA:130,17
DA:132,17
DA:134,12
DA:135,6
DA:136,6
DA:139,6
DA:141,6
DA:142,6
DA:143,6
DA:144,6
DA:145,6
DA:148,6
DA:150,6
DA:152,12
DA:153,6
DA:154,6
DA:158,4
DA:161,2
DA:162,2
LF:78
LH:78
end_of_record
TN:
SF:/home/runner/work/MeshToolBox/MeshToolBox/App/Source/MeshIntegrity.cpp
FN:9,78,_ZN9Utilitary7Surface13MeshIntegrity14CheckIntegrityERKN4Data7Surface4MeshE
FNDA:13,_ZN9Utilitary7Surface13MeshIntegrity14CheckIntegrityERKN4Data7Surface4MeshE
FNF:1
FNH:1
DA:9,13
DA:12,61
DA:14,51
DA:16,51
DA:17,1
DA:20,50
DA:21,1
DA:24,49
DA:25,49
DA:26,49
DA:27,1
DA:31,10
DA:32,10
DA:33,49
DA:35,45
DA:37,45
DA:38,1
DA:41,88
DA:42,88
DA:43,1
DA:45,168
DA:48,129
DA:49,1
DA:52,128
DA:53,128
DA:56,89
DA:57,89
DA:60,89
DA:61,1
DA:64,88
DA:65,1
DA:68,87
DA:69,87
DA:72,87
DA:73,1
DA:77,4
LF:36
LH:36
end_of_record
TN:
SF:/home/runner/work/MeshToolBox/MeshToolBox/App/Source/MeshLoader.cpp
FN:103,115,_ZZN9Utilitary7Surface10MeshLoader7LoadOFFERKNSt10filesystem7__cxx114pathEENKUljjjhE_clEjjjh
FN:159,311,_ZN9Utilitary7Surface10MeshLoader7LoadOBJERKNSt10filesystem7__cxx114pathE
FN:189,201,_ZZN9Utilitary7Surface10MeshLoader7LoadOBJERKNSt10filesystem7__cxx114pathEENKUljjjhE_clEjjjh
FN:22,37,_ZN12_GLOBAL__N_125SkipCommentsAndWhitespaceERSt14basic_ifstreamIcSt11char_traitsIcEE
FN:40,57,_ZN12_GLOBAL__N_115ReadNextIntegerERSt14basic_ifstreamIcSt11char_traitsIcEE
FN:62,157,_ZN9Utilitary7Surface10MeshLoader7LoadOFFERKNSt10filesystem7__cxx114pathE
FNDA:108,_ZZN9Utilitary7Surface10MeshLoader7LoadOFFERKNSt10filesystem7__cxx114pathEENKUljjjhE_clEjjjh
FNDA:6,_ZN9Utilitary7Surface10MeshLoader7LoadOBJERKNSt10filesystem7__cxx114pathE
FNDA:144,_ZZN9Utilitary7Surface10MeshLoader7LoadOBJERKNSt10filesystem7__cxx114pathEENKUljjjhE_clEjjjh
FNDA:313,_ZN12_GLOBAL__N_125SkipCommentsAndWhitespaceERSt14basic_ifstreamIcSt11char_traitsIcEE
FNDA:396,_ZN12_GLOBAL__N_115ReadNextIntegerERSt14basic_ifstreamIcSt11char_traitsIcEE
FNDA:5,_ZN9Utilitary7Surface10MeshLoader7LoadOFFERKNSt10filesystem7__cxx114pathE
FNF:6
FNH:6
DA:22,313
DA:24,938
DA:26,625
DA:29,265
DA:34,360
DA:37,313
DA:40,396
DA:43,396
DA:46,396
DA:47,789
DA:49,393
DA:51,396
DA:52,396
DA:53,36
DA:56,720
DA:62,5
DA:64,5
DA:67,5
DA:69,1
DA:70,1
DA:74,4
DA:75,4
DA:76,4
DA:77,4
DA:79,1
DA:80,1
DA:83,3
DA:86,3
DA:88,3
DA:91,3
DA:92,27
DA:94,24
DA:95,24
DA:99,3
DA:103,108
DA:105,108
DA:107,54
DA:111,54
DA:112,54
DA:113,54
DA:115,108
DA:117,3
DA:118,39
DA:120,36
DA:122,36
DA:125,36
DA:127,144
DA:130,108
DA:133,108
DA:136,108
DA:137,24
DA:140,108
DA:143,36
DA:144,36
DA:145,36
DA:148,36
DA:150,36
DA:152,36
DA:155,3
DA:156,3
DA:157,5
DA:159,6
DA:161,6
DA:164,6
DA:166,1
DA:167,1
DA:171,5
DA:173,1
DA:174,1
DA:177,4
DA:180,4
DA:183,4
DA:185,4
DA:189,144
DA:191,144
DA:193,72
DA:197,72
DA:198,72
DA:199,72
DA:201,144
DA:203,4
DA:204,150
DA:206,150
DA:208,150
DA:209,4
DA:211,146
DA:213,146
DA:215,1
DA:216,1
DA:217,1
DA:218,145
DA:220,4
DA:221,4
DA:222,4
DA:224,4
DA:225,4
DA:226,141
DA:228,32
DA:229,32
DA:230,32
DA:232,32
DA:234,109
DA:237,42
DA:238,42
DA:240,42
DA:242,67
DA:245,18
DA:246,18
DA:248,18
DA:250,49
DA:252,1
DA:253,1
DA:254,1
DA:255,48
DA:257,48
DA:258,48
DA:259,48
DA:262,192
DA:264,144
DA:265,144
DA:266,144
DA:267,144
DA:268,32
DA:270,144
DA:273,144
DA:275,144
DA:276,144
DA:278,108
DA:279,108
DA:282,144
DA:283,36
DA:286,108
DA:288,108
DA:289,108
DA:291,108
DA:292,108
DA:296,48
DA:297,48
DA:298,48
DA:301,48
DA:303,48
DA:305,48
DA:309,4
DA:310,4
DA:311,6
LF:145
LH:145
end_of_record
TN:
SF:/home/runner/work/MeshToolBox/MeshToolBox/App/Source/Primitive.cpp
FN:14,24,_ZZN9Utilitary9Primitive12GetEdgeIndexERKN4Data9Primitive8TriangleEjjENKUljhE_clEjh
FN:39,46,_ZN9Utilitary9Primitive19GetVertexLocalIndexERKN4Data9Primitive8TriangleEj
FN:8,37,_ZN9Utilitary9Primitive12GetEdgeIndexERKN4Data9Primitive8TriangleEjj
FNDA:192,_ZZN9Utilitary9Primitive12GetEdgeIndexERKN4Data9Primitive8TriangleEjjENKUljhE_clEjh
FNDA:52,_ZN9Utilitary9Primitive19GetVertexLocalIndexERKN4Data9Primitive8TriangleEj
FNDA:100,_ZN9Utilitary9Primitive12GetEdgeIndexERKN4Data9Primitive8TriangleEjj
FNF:3
FNH:3
DA:8,100
DA:11,100
DA:14,192
DA:16,192
DA:17,192
DA:18,192
DA:19,93
DA:20,99
DA:21,93
DA:23,6
DA:24,100
DA:27,400
DA:29,300
DA:30,300
DA:31,96
DA:32,204
DA:33,96
DA:36,100
DA:39,52
DA:41,111
DA:42,108
DA:43,49
DA:45,3
LF:23
LH:23
end_of_record
TN:
SF:/home/runner/work/MeshToolBox/MeshToolBox/App/Source/PrimitiveProxy.cpp
FN:10,13,_ZN4Data9Primitive13TriangleProxyC2ERNS_7Surface4MeshEj
FN:15,18,_ZNK4Data9Primitive13TriangleProxy8GetIndexEv
FN:20,23,_ZN4Data9Primitive13TriangleProxy11GetTriangleEv
FN:25,28,_ZNK4Data9Primitive13TriangleProxy11GetTriangleEv
FN:30,34,_ZNK4Data9Primitive13TriangleProxy9GetVertexEh
FN:36,39,_ZNK4Data9Primitive13TriangleProxy11GetVerticesEv
FN:41,45,_ZNK4Data9Primitive13TriangleProxy11GetNeighborEh
FN:47,50,_ZNK4Data9Primitive13TriangleProxy12GetNeighborsEv
FN:54,57,_ZN4Data9Primitive11VertexProxyC2ERNS_7Surface4MeshEj
FN:59,62,_ZNK4Data9Primitive11VertexProxy8GetIndexEv
FN:64,67,_ZN4Data9Primitive11VertexProxy9GetVertexEv
FN:69,72,_ZNK4Data9Primitive11VertexProxy9GetVertexEv
FN:74,77,_ZN4Data9Primitive11VertexProxy11GetPositionEv
FN:79,82,_ZNK4Data9Primitive11VertexProxy11GetPositionEv
FN:84,87,_ZNK4Data9Primitive11VertexProxy19GetIncidentTriangleEv
FNDA:85,_ZN4Data9Primitive13TriangleProxyC2ERNS_7Surface4MeshEj
FNDA:3,_ZNK4Data9Primitive13TriangleProxy8GetIndexEv
FNDA:1,_ZN4Data9Primitive13TriangleProxy11GetTriangleEv
FNDA:120,_ZNK4Data9Primitive13TriangleProxy11GetTriangleEv
FNDA:114,_ZNK4Data9Primitive13TriangleProxy9GetVertexEh
FNDA:2,_ZNK4Data9Primitive13TriangleProxy11GetVerticesEv
FNDA:2,_ZNK4Data9Primitive13TriangleProxy11GetNeighborEh
FNDA:2,_ZNK4Data9Primitive13TriangleProxy12GetNeighborsEv
FNDA:90,_ZN4Data9Primitive11VertexProxyC2ERNS_7Surface4MeshEj
FNDA:3,_ZNK4Data9Primitive11VertexProxy8GetIndexEv
FNDA:4,_ZN4Data9Primitive11VertexProxy9GetVertexEv
FNDA:3,_ZNK4Data9Primitive11VertexProxy9GetVertexEv
FNDA:3,_ZN4Data9Primitive11VertexProxy11GetPositionEv
FNDA:1,_ZNK4Data9Primitive11VertexProxy11GetPositionEv
FNDA:2,_ZNK4Data9Primitive11VertexProxy19GetIncidentTriangleEv
FNF:15
FNH:15
DA:10,85
DA:11,85
DA:12,85
DA:13,85
DA:15,3
DA:17,3
DA:20,1
DA:22,1
DA:25,120
DA:27,120
DA:30,114
DA:32,114
DA:33,114
DA:36,2
DA:38,2
DA:41,2
DA:43,2
DA:44,2
DA:47,2
DA:49,2
DA:54,90
DA:55,90
DA:56,90
DA:57,90
DA:59,3
DA:61,3
DA:64,4
DA:66,4
DA:69,3
DA:71,3
DA:74,3
DA:76,3
DA:79,1
DA:81,1
DA:84,2
DA:86,2
LF:36
LH:36
end_of_record
TN:
SF:/home/runner/work/MeshToolBox/MeshToolBox/App/Source/VertexPair.cpp
FN:25,29,_ZNK4Data9Primitive10VertexPaireqERKS1_
FN:31,34,_ZNK4Data9Primitive10VertexPair15GetMinVertexIdxEv
FN:36,39,_ZNK4Data9Primitive10VertexPair15GetMaxVertexIdxEv
FN:7,23,_ZN4Data9Primitive10VertexPairC2Ejj
FNDA:1055,_ZNK4Data9Primitive10VertexPaireqERKS1_
FNDA:748,_ZNK4Data9Primitive10VertexPair15GetMinVertexIdxEv
FNDA:748,_ZNK4Data9Primitive10VertexPair15GetMaxVertexIdxEv
FNDA:760,_ZN4Data9Primitive10VertexPairC2Ejj
FNF:4
FNH:4
DA:7,760
DA:9,760
DA:11,382
DA:12,382
DA:14,378
DA:16,377
DA:17,377
DA:21,1
DA:23,759
DA:25,1055
DA:27,335
DA:28,1390
DA:31,748
DA:33,748
DA:36,748
DA:38,748
LF:16
LH:16
end_of_record
TN:
SF:/home/runner/work/MeshToolBox/MeshToolBox/Core/Include/Core/BaseTypes.h
FN:41,46,_ZNKSt4hashIN3glm3vecILi2EfLNS0_9qualifierE0EEEEclERKS3_
FN:53,59,_ZNKSt4hashIN3glm3vecILi3EfLNS0_9qualifierE0EEEEclERKS3_
FNDA:6,_ZNKSt4hashIN3glm3vecILi2EfLNS0_9qualifierE0EEEEclERKS3_
FNDA:2,_ZNKSt4hashIN3glm3vecILi3EfLNS0_9qualifierE0EEEEclERKS3_
FNF:2
FNH:2
DA:41,6
DA:43,6
DA:44,6
DA:45,6
DA:53,2
DA:55,2
DA:56,2
DA:57,2
DA:58,2
LF:9
LH:9
end_of_record
TN:
SF:/home/runner/work/MeshToolBox/MeshToolBox/Core/Include/Core/MathHelpers.h
FN:37,40,_ZN4Core4Math8Geometry9NormalizeERKN3glm3vecILi3EfLNS2_9qualifierE0EEE
FN:56,59,_ZN4Core4Math8Geometry5CrossERKN3glm3vecILi3EfLNS2_9qualifierE0EEES7_
FN:75,78,_ZN4Core4Math8Geometry5AngleERKN3glm3vecILi3EfLNS2_9qualifierE0EEES7_
FNDA:80,_ZN4Core4Math8Geometry9NormalizeERKN3glm3vecILi3EfLNS2_9qualifierE0EEE
FNDA:24,_ZN4Core4Math8Geometry5CrossERKN3glm3vecILi3EfLNS2_9qualifierE0EEES7_
FNDA:36,_ZN4Core4Math8Geometry5AngleERKN3glm3vecILi3EfLNS2_9qualifierE0EEES7_
FNF:3
FNH:3
DA:37,80
DA:39,80
DA:56,24
DA:58,24
DA:75,36
DA:77,36
LF:6
LH:6
end_of_record
TN:
SF:/home/runner/work/MeshToolBox/MeshToolBox/Core/Include/Core/PrintHelpers.h
FN:112,123,_ZN12PrintHelpers6detail9ErrorImplIJNSt7__cxx1112basic_stringIcSt11char_traitsIcESaIcEEEEEEvRKSt15source_locationSt19basic_format_stringIcJDpNSt13type_identityIT_E4typeEEEDpOSD_
FN:126,141,_ZN12PrintHelpers6detail9DebugImplIJNSt7__cxx1112basic_stringIcSt11char_traitsIcESaIcEEEEEEvRKSt15source_locationSt19basic_format_stringIcJDpNSt13type_identityIT_E4typeEEEDpOSD_
FN:23,51,_ZN12PrintHelpers19ExtractFunctionNameESt17basic_string_viewIcSt11char_traitsIcEE
FN:70,81,_ZN12PrintHelpers6detail8InfoImplIJRNSt7__cxx1112basic_stringIcSt11char_traitsIcESaIcEEES7_EEEvRKSt15source_locationSt19basic_format_stringIcJDpNSt13type_identityIT_E4typeEEEDpOSE_
FNDA:4,_ZN12PrintHelpers6detail9ErrorImplIJNSt7__cxx1112basic_stringIcSt11char_traitsIcESaIcEEEEEEvRKSt15source_locationSt19basic_format_stringIcJDpNSt13type_identityIT_E4typeEEEDpOSD_
FNDA:0,_ZN12PrintHelpers6detail9DebugImplIJNSt7__cxx1112basic_stringIcSt11char_traitsIcESaIcEEEEEEvRKSt15source_locationSt19basic_format_stringIcJDpNSt13type_identityIT_E4typeEEEDpOSD_
FNDA:0,_ZN12PrintHelpers19ExtractFunctionNameESt17basic_string_viewIcSt11char_traitsIcEE
FNDA:4,_ZN12PrintHelpers6detail8InfoImplIJRNSt7__cxx1112basic_stringIcSt11char_traitsIcESaIcEEES7_EEEvRKSt15source_locationSt19basic_format_stringIcJDpNSt13type_identityIT_E4typeEEEDpOSE_
FNF:4
FNH:2
DA:23,0
DA:26,0
DA:27,0
DA:28,0
DA:32,0
DA:33,0
DA:35,0
DA:38,0
DA:41,0
DA:43,0
DA:47,0
DA:50,0
DA:70,4
DA:72,4
DA:73,4
DA:81,4
DA:112,4
DA:114,4
DA:115,4
DA:123,4
DA:126,0
DA:131,0
DA:132,0
DA:141,0
LF:24
LH:8
end_of_record
